; Function Attrs: nounwind uwtable
define internal void @help(ptr noundef %0) #4 {
  %2 = tail call i32 (ptr, ...) @pg_printf(ptr noundef nonnull @.str.26, ptr noundef %0) #9
  %3 = tail call i32 (ptr, ...) @pg_printf(ptr noundef nonnull @.str.27) #9
  %4 = tail call i32 (ptr, ...) @pg_printf(ptr noundef nonnull @.str.28, ptr noundef %0) #9
  %5 = tail call i32 (ptr, ...) @pg_printf(ptr noundef nonnull @.str.29) #9
  %6 = tail call i32 (ptr, ...) @pg_printf(ptr noundef nonnull @.str.30) #9
  %7 = tail call i32 (ptr, ...) @pg_printf(ptr noundef nonnull @.str.31) #9
  %8 = tail call i32 (ptr, ...) @pg_printf(ptr noundef nonnull @.str.32) #9
  %9 = tail call i32 (ptr, ...) @pg_printf(ptr noundef nonnull @.str.33) #9
  %10 = tail call i32 (ptr, ...) @pg_printf(ptr noundef nonnull @.str.34) #9
  %11 = tail call i32 (ptr, ...) @pg_printf(ptr noundef nonnull @.str.35) #9
  %12 = tail call i32 (ptr, ...) @pg_printf(ptr noundef nonnull @.str.36) #9
  %13 = tail call i32 (ptr, ...) @pg_printf(ptr noundef nonnull @.str.37) #9
  %14 = tail call i32 (ptr, ...) @pg_printf(ptr noundef nonnull @.str.38) #9
  %15 = tail call i32 (ptr, ...) @pg_printf(ptr noundef nonnull @.str.39) #9
  %16 = tail call i32 (ptr, ...) @pg_printf(ptr noundef nonnull @.str.40) #9
  %17 = tail call i32 (ptr, ...) @pg_printf(ptr noundef nonnull @.str.41) #9
  %18 = tail call i32 (ptr, ...) @pg_printf(ptr noundef nonnull @.str.42) #9
  %19 = tail call i32 (ptr, ...) @pg_printf(ptr noundef nonnull @.str.43) #9
  %20 = tail call i32 (ptr, ...) @pg_printf(ptr noundef nonnull @.str.44) #9
  %21 = tail call i32 (ptr, ...) @pg_printf(ptr noundef nonnull @.str.45) #9
  %22 = tail call i32 (ptr, ...) @pg_printf(ptr noundef nonnull @.str.46, ptr noundef nonnull @.str.47) #9
  %23 = tail call i32 (ptr, ...) @pg_printf(ptr noundef nonnull @.str.48, ptr noundef nonnull @.str.49, ptr noundef nonnull @.str.50) #9
  ret void
}